; Function Attrs: mustprogress uwtable
define noundef zeroext i1 @_ZN2cv5utils5trace7details12TraceManager11isActivatedEv() local_unnamed_addr #3 align 2 personality ptr @__gxx_personality_v0 {
  %1 = load i8, ptr @_ZN2cv13__terminationE, align 1, !tbaa !19, !range !21, !noundef !22
  %2 = trunc nuw i8 %1 to i1
  br i1 %2, label %3, label %4

3:                                                ; preds = %0
  store i8 0, ptr @_ZN2cv5utils5trace7detailsL9activatedE, align 1, !tbaa !19
  br label %17

4:                                                ; preds = %0
  %.b1 = load i1, ptr @_ZN2cv5utils5trace7detailsL13isInitializedE, align 1
  br i1 %.b1, label %_ZN2cv5utils5trace7details15getTraceManagerEv.exit, label %5

5:                                                ; preds = %4
  %6 = load atomic i8, ptr @_ZGVZN2cv5utils5trace7details15getTraceManagerEvE8instance acquire, align 8
  %7 = icmp eq i8 %6, 0
  br i1 %7, label %8, label %_ZN2cv5utils5trace7details15getTraceManagerEv.exit, !prof !28

8:                                                ; preds = %5
  %9 = tail call i32 @__cxa_guard_acquire(ptr nonnull @_ZGVZN2cv5utils5trace7details15getTraceManagerEvE8instance) #24
  %.not.i = icmp eq i32 %9, 0
  br i1 %.not.i, label %_ZN2cv5utils5trace7details15getTraceManagerEv.exit, label %10

10:                                               ; preds = %8
  invoke fastcc void @_ZN2cv5utils5trace7detailsL23getTraceManagerCallOnceEv()
          to label %11 unwind label %13

11:                                               ; preds = %10
  store ptr @_ZZN2cv5utils5trace7detailsL23getTraceManagerCallOnceEvE14globalInstance, ptr @_ZZN2cv5utils5trace7details15getTraceManagerEvE8instance, align 8, !tbaa !29
  %12 = tail call ptr @llvm.invariant.start.p0(i64 8, ptr nonnull @_ZZN2cv5utils5trace7details15getTraceManagerEvE8instance)
  tail call void @__cxa_guard_release(ptr nonnull @_ZGVZN2cv5utils5trace7details15getTraceManagerEvE8instance) #24
  br label %_ZN2cv5utils5trace7details15getTraceManagerEv.exit

13:                                               ; preds = %10
  %14 = landingpad { ptr, i32 }
          cleanup
  tail call void @__cxa_guard_abort(ptr nonnull @_ZGVZN2cv5utils5trace7details15getTraceManagerEvE8instance) #24
  resume { ptr, i32 } %14

_ZN2cv5utils5trace7details15getTraceManagerEv.exit: ; preds = %11, %8, %5, %4
  %15 = load i8, ptr @_ZN2cv5utils5trace7detailsL9activatedE, align 1, !tbaa !19, !range !21, !noundef !22
  %16 = trunc nuw i8 %15 to i1
  br label %17

17:                                               ; preds = %_ZN2cv5utils5trace7details15getTraceManagerEv.exit, %3
  %.0 = phi i1 [ false, %3 ], [ %16, %_ZN2cv5utils5trace7details15getTraceManagerEv.exit ]
  ret i1 %.0
}